
InterfaceCode.elf:     file format elf32-avr

Sections:
Idx Name          Size      VMA       LMA       File off  Algn
  0 .text         00000c2e  00000000  00000000  00000094  2**1
                  CONTENTS, ALLOC, LOAD, READONLY, CODE
  1 .data         00000020  00800060  00000c2e  00000cc2  2**0
                  CONTENTS, ALLOC, LOAD, DATA
  2 .bss          0000001a  00800080  00800080  00000ce2  2**0
                  ALLOC
  3 .comment      00000030  00000000  00000000  00000ce2  2**0
                  CONTENTS, READONLY
  4 .note.gnu.avr.deviceinfo 0000003c  00000000  00000000  00000d14  2**2
                  CONTENTS, READONLY
  5 .debug_info   000004e6  00000000  00000000  00000d50  2**0
                  CONTENTS, READONLY, DEBUGGING
  6 .debug_abbrev 000004a3  00000000  00000000  00001236  2**0
                  CONTENTS, READONLY, DEBUGGING
  7 .debug_line   00000116  00000000  00000000  000016d9  2**0
                  CONTENTS, READONLY, DEBUGGING
  8 .debug_str    00000196  00000000  00000000  000017ef  2**0
                  CONTENTS, READONLY, DEBUGGING

Disassembly of section .text:

00000000 <__vectors>:
   0:	0c 94 2a 00 	jmp	0x54	; 0x54 <__ctors_end>
   4:	0c 94 1f 04 	jmp	0x83e	; 0x83e <__vector_1>
   8:	0c 94 48 04 	jmp	0x890	; 0x890 <__vector_2>
   c:	0c 94 71 04 	jmp	0x8e2	; 0x8e2 <__vector_3>
  10:	0c 94 47 00 	jmp	0x8e	; 0x8e <__bad_interrupt>
  14:	0c 94 47 00 	jmp	0x8e	; 0x8e <__bad_interrupt>
  18:	0c 94 c4 05 	jmp	0xb88	; 0xb88 <__vector_6>
  1c:	0c 94 72 05 	jmp	0xae4	; 0xae4 <__vector_7>
  20:	0c 94 9b 05 	jmp	0xb36	; 0xb36 <__vector_8>
  24:	0c 94 49 05 	jmp	0xa92	; 0xa92 <__vector_9>
  28:	0c 94 c3 04 	jmp	0x986	; 0x986 <__vector_10>
  2c:	0c 94 9a 04 	jmp	0x934	; 0x934 <__vector_11>
  30:	0c 94 47 00 	jmp	0x8e	; 0x8e <__bad_interrupt>
  34:	0c 94 47 00 	jmp	0x8e	; 0x8e <__bad_interrupt>
  38:	0c 94 47 00 	jmp	0x8e	; 0x8e <__bad_interrupt>
  3c:	0c 94 47 00 	jmp	0x8e	; 0x8e <__bad_interrupt>
  40:	0c 94 47 00 	jmp	0x8e	; 0x8e <__bad_interrupt>
  44:	0c 94 47 00 	jmp	0x8e	; 0x8e <__bad_interrupt>
  48:	0c 94 47 00 	jmp	0x8e	; 0x8e <__bad_interrupt>
  4c:	0c 94 47 00 	jmp	0x8e	; 0x8e <__bad_interrupt>
  50:	0c 94 47 00 	jmp	0x8e	; 0x8e <__bad_interrupt>

00000054 <__ctors_end>:
  54:	11 24       	eor	r1, r1
  56:	1f be       	out	0x3f, r1	; 63
  58:	cf e5       	ldi	r28, 0x5F	; 95
  5a:	d8 e0       	ldi	r29, 0x08	; 8
  5c:	de bf       	out	0x3e, r29	; 62
  5e:	cd bf       	out	0x3d, r28	; 61

00000060 <__do_copy_data>:
  60:	10 e0       	ldi	r17, 0x00	; 0
  62:	a0 e6       	ldi	r26, 0x60	; 96
  64:	b0 e0       	ldi	r27, 0x00	; 0
  66:	ee e2       	ldi	r30, 0x2E	; 46
  68:	fc e0       	ldi	r31, 0x0C	; 12
  6a:	02 c0       	rjmp	.+4      	; 0x70 <__do_copy_data+0x10>
  6c:	05 90       	lpm	r0, Z+
  6e:	0d 92       	st	X+, r0
  70:	a0 38       	cpi	r26, 0x80	; 128
  72:	b1 07       	cpc	r27, r17
  74:	d9 f7       	brne	.-10     	; 0x6c <__do_copy_data+0xc>

00000076 <__do_clear_bss>:
  76:	20 e0       	ldi	r18, 0x00	; 0
  78:	a0 e8       	ldi	r26, 0x80	; 128
  7a:	b0 e0       	ldi	r27, 0x00	; 0
  7c:	01 c0       	rjmp	.+2      	; 0x80 <.do_clear_bss_start>

0000007e <.do_clear_bss_loop>:
  7e:	1d 92       	st	X+, r1

00000080 <.do_clear_bss_start>:
  80:	aa 39       	cpi	r26, 0x9A	; 154
  82:	b2 07       	cpc	r27, r18
  84:	e1 f7       	brne	.-8      	; 0x7e <.do_clear_bss_loop>
  86:	0e 94 95 01 	call	0x32a	; 0x32a <main>
  8a:	0c 94 15 06 	jmp	0xc2a	; 0xc2a <_exit>

0000008e <__bad_interrupt>:
  8e:	0c 94 00 00 	jmp	0	; 0x0 <__vectors>

00000092 <KeyPad_Init>:
  92:	08 95       	ret

00000094 <LCDWriteInstruction>:
  94:	cf 93       	push	r28
  96:	c8 2f       	mov	r28, r24
  98:	60 e0       	ldi	r22, 0x00	; 0
  9a:	8a e0       	ldi	r24, 0x0A	; 10
  9c:	0e 94 05 03 	call	0x60a	; 0x60a <DIO_VidWritePin>
  a0:	6c 2f       	mov	r22, r28
  a2:	66 1f       	adc	r22, r22
  a4:	66 27       	eor	r22, r22
  a6:	66 1f       	adc	r22, r22
  a8:	87 e0       	ldi	r24, 0x07	; 7
  aa:	0e 94 05 03 	call	0x60a	; 0x60a <DIO_VidWritePin>
  ae:	c6 fb       	bst	r28, 6
  b0:	66 27       	eor	r22, r22
  b2:	60 f9       	bld	r22, 0
  b4:	86 e0       	ldi	r24, 0x06	; 6
  b6:	0e 94 05 03 	call	0x60a	; 0x60a <DIO_VidWritePin>
  ba:	c5 fb       	bst	r28, 5
  bc:	66 27       	eor	r22, r22
  be:	60 f9       	bld	r22, 0
  c0:	85 e0       	ldi	r24, 0x05	; 5
  c2:	0e 94 05 03 	call	0x60a	; 0x60a <DIO_VidWritePin>
  c6:	c4 fb       	bst	r28, 4
  c8:	66 27       	eor	r22, r22
  ca:	60 f9       	bld	r22, 0
  cc:	84 e0       	ldi	r24, 0x04	; 4
  ce:	0e 94 05 03 	call	0x60a	; 0x60a <DIO_VidWritePin>
  d2:	61 e0       	ldi	r22, 0x01	; 1
  d4:	89 e0       	ldi	r24, 0x09	; 9
  d6:	0e 94 05 03 	call	0x60a	; 0x60a <DIO_VidWritePin>
  da:	8f ec       	ldi	r24, 0xCF	; 207
  dc:	97 e0       	ldi	r25, 0x07	; 7
  de:	01 97       	sbiw	r24, 0x01	; 1
  e0:	f1 f7       	brne	.-4      	; 0xde <LCDWriteInstruction+0x4a>
  e2:	00 c0       	rjmp	.+0      	; 0xe4 <LCDWriteInstruction+0x50>
  e4:	00 00       	nop
  e6:	60 e0       	ldi	r22, 0x00	; 0
  e8:	89 e0       	ldi	r24, 0x09	; 9
  ea:	0e 94 05 03 	call	0x60a	; 0x60a <DIO_VidWritePin>
  ee:	8f ec       	ldi	r24, 0xCF	; 207
  f0:	97 e0       	ldi	r25, 0x07	; 7
  f2:	01 97       	sbiw	r24, 0x01	; 1
  f4:	f1 f7       	brne	.-4      	; 0xf2 <LCDWriteInstruction+0x5e>
  f6:	00 c0       	rjmp	.+0      	; 0xf8 <LCDWriteInstruction+0x64>
  f8:	00 00       	nop
  fa:	c3 fb       	bst	r28, 3
  fc:	66 27       	eor	r22, r22
  fe:	60 f9       	bld	r22, 0
 100:	87 e0       	ldi	r24, 0x07	; 7
 102:	0e 94 05 03 	call	0x60a	; 0x60a <DIO_VidWritePin>
 106:	c2 fb       	bst	r28, 2
 108:	66 27       	eor	r22, r22
 10a:	60 f9       	bld	r22, 0
 10c:	86 e0       	ldi	r24, 0x06	; 6
 10e:	0e 94 05 03 	call	0x60a	; 0x60a <DIO_VidWritePin>
 112:	c1 fb       	bst	r28, 1
 114:	66 27       	eor	r22, r22
 116:	60 f9       	bld	r22, 0
 118:	85 e0       	ldi	r24, 0x05	; 5
 11a:	0e 94 05 03 	call	0x60a	; 0x60a <DIO_VidWritePin>
 11e:	6c 2f       	mov	r22, r28
 120:	61 70       	andi	r22, 0x01	; 1
 122:	84 e0       	ldi	r24, 0x04	; 4
 124:	0e 94 05 03 	call	0x60a	; 0x60a <DIO_VidWritePin>
 128:	61 e0       	ldi	r22, 0x01	; 1
 12a:	89 e0       	ldi	r24, 0x09	; 9
 12c:	0e 94 05 03 	call	0x60a	; 0x60a <DIO_VidWritePin>
 130:	8f ec       	ldi	r24, 0xCF	; 207
 132:	97 e0       	ldi	r25, 0x07	; 7
 134:	01 97       	sbiw	r24, 0x01	; 1
 136:	f1 f7       	brne	.-4      	; 0x134 <LCDWriteInstruction+0xa0>
 138:	00 c0       	rjmp	.+0      	; 0x13a <LCDWriteInstruction+0xa6>
 13a:	00 00       	nop
 13c:	60 e0       	ldi	r22, 0x00	; 0
 13e:	89 e0       	ldi	r24, 0x09	; 9
 140:	0e 94 05 03 	call	0x60a	; 0x60a <DIO_VidWritePin>
 144:	8f ec       	ldi	r24, 0xCF	; 207
 146:	97 e0       	ldi	r25, 0x07	; 7
 148:	01 97       	sbiw	r24, 0x01	; 1
 14a:	f1 f7       	brne	.-4      	; 0x148 <LCDWriteInstruction+0xb4>
 14c:	00 c0       	rjmp	.+0      	; 0x14e <LCDWriteInstruction+0xba>
 14e:	00 00       	nop
 150:	cf 91       	pop	r28
 152:	08 95       	ret

00000154 <LCDWriteData>:
 154:	cf 93       	push	r28
 156:	c8 2f       	mov	r28, r24
 158:	61 e0       	ldi	r22, 0x01	; 1
 15a:	8a e0       	ldi	r24, 0x0A	; 10
 15c:	0e 94 05 03 	call	0x60a	; 0x60a <DIO_VidWritePin>
 160:	6c 2f       	mov	r22, r28
 162:	66 1f       	adc	r22, r22
 164:	66 27       	eor	r22, r22
 166:	66 1f       	adc	r22, r22
 168:	87 e0       	ldi	r24, 0x07	; 7
 16a:	0e 94 05 03 	call	0x60a	; 0x60a <DIO_VidWritePin>
 16e:	c6 fb       	bst	r28, 6
 170:	66 27       	eor	r22, r22
 172:	60 f9       	bld	r22, 0
 174:	86 e0       	ldi	r24, 0x06	; 6
 176:	0e 94 05 03 	call	0x60a	; 0x60a <DIO_VidWritePin>
 17a:	c5 fb       	bst	r28, 5
 17c:	66 27       	eor	r22, r22
 17e:	60 f9       	bld	r22, 0
 180:	85 e0       	ldi	r24, 0x05	; 5
 182:	0e 94 05 03 	call	0x60a	; 0x60a <DIO_VidWritePin>
 186:	c4 fb       	bst	r28, 4
 188:	66 27       	eor	r22, r22
 18a:	60 f9       	bld	r22, 0
 18c:	84 e0       	ldi	r24, 0x04	; 4
 18e:	0e 94 05 03 	call	0x60a	; 0x60a <DIO_VidWritePin>
 192:	61 e0       	ldi	r22, 0x01	; 1
 194:	89 e0       	ldi	r24, 0x09	; 9
 196:	0e 94 05 03 	call	0x60a	; 0x60a <DIO_VidWritePin>
 19a:	8f ec       	ldi	r24, 0xCF	; 207
 19c:	97 e0       	ldi	r25, 0x07	; 7
 19e:	01 97       	sbiw	r24, 0x01	; 1
 1a0:	f1 f7       	brne	.-4      	; 0x19e <LCDWriteData+0x4a>
 1a2:	00 c0       	rjmp	.+0      	; 0x1a4 <LCDWriteData+0x50>
 1a4:	00 00       	nop
 1a6:	60 e0       	ldi	r22, 0x00	; 0
 1a8:	89 e0       	ldi	r24, 0x09	; 9
 1aa:	0e 94 05 03 	call	0x60a	; 0x60a <DIO_VidWritePin>
 1ae:	8f ec       	ldi	r24, 0xCF	; 207
 1b0:	97 e0       	ldi	r25, 0x07	; 7
 1b2:	01 97       	sbiw	r24, 0x01	; 1
 1b4:	f1 f7       	brne	.-4      	; 0x1b2 <LCDWriteData+0x5e>
 1b6:	00 c0       	rjmp	.+0      	; 0x1b8 <LCDWriteData+0x64>
 1b8:	00 00       	nop
 1ba:	c3 fb       	bst	r28, 3
 1bc:	66 27       	eor	r22, r22
 1be:	60 f9       	bld	r22, 0
 1c0:	87 e0       	ldi	r24, 0x07	; 7
 1c2:	0e 94 05 03 	call	0x60a	; 0x60a <DIO_VidWritePin>
 1c6:	c2 fb       	bst	r28, 2
 1c8:	66 27       	eor	r22, r22
 1ca:	60 f9       	bld	r22, 0
 1cc:	86 e0       	ldi	r24, 0x06	; 6
 1ce:	0e 94 05 03 	call	0x60a	; 0x60a <DIO_VidWritePin>
 1d2:	c1 fb       	bst	r28, 1
 1d4:	66 27       	eor	r22, r22
 1d6:	60 f9       	bld	r22, 0
 1d8:	85 e0       	ldi	r24, 0x05	; 5
 1da:	0e 94 05 03 	call	0x60a	; 0x60a <DIO_VidWritePin>
 1de:	6c 2f       	mov	r22, r28
 1e0:	61 70       	andi	r22, 0x01	; 1
 1e2:	84 e0       	ldi	r24, 0x04	; 4
 1e4:	0e 94 05 03 	call	0x60a	; 0x60a <DIO_VidWritePin>
 1e8:	61 e0       	ldi	r22, 0x01	; 1
 1ea:	89 e0       	ldi	r24, 0x09	; 9
 1ec:	0e 94 05 03 	call	0x60a	; 0x60a <DIO_VidWritePin>
 1f0:	8f ec       	ldi	r24, 0xCF	; 207
 1f2:	97 e0       	ldi	r25, 0x07	; 7
 1f4:	01 97       	sbiw	r24, 0x01	; 1
 1f6:	f1 f7       	brne	.-4      	; 0x1f4 <LCDWriteData+0xa0>
 1f8:	00 c0       	rjmp	.+0      	; 0x1fa <LCDWriteData+0xa6>
 1fa:	00 00       	nop
 1fc:	60 e0       	ldi	r22, 0x00	; 0
 1fe:	89 e0       	ldi	r24, 0x09	; 9
 200:	0e 94 05 03 	call	0x60a	; 0x60a <DIO_VidWritePin>
 204:	8f ec       	ldi	r24, 0xCF	; 207
 206:	97 e0       	ldi	r25, 0x07	; 7
 208:	01 97       	sbiw	r24, 0x01	; 1
 20a:	f1 f7       	brne	.-4      	; 0x208 <LCDWriteData+0xb4>
 20c:	00 c0       	rjmp	.+0      	; 0x20e <LCDWriteData+0xba>
 20e:	00 00       	nop
 210:	cf 91       	pop	r28
 212:	08 95       	ret

00000214 <LCD_Init>:
 214:	2f e7       	ldi	r18, 0x7F	; 127
 216:	88 e3       	ldi	r24, 0x38	; 56
 218:	91 e0       	ldi	r25, 0x01	; 1
 21a:	21 50       	subi	r18, 0x01	; 1
 21c:	80 40       	sbci	r24, 0x00	; 0
 21e:	90 40       	sbci	r25, 0x00	; 0
 220:	e1 f7       	brne	.-8      	; 0x21a <LCD_Init+0x6>
 222:	00 c0       	rjmp	.+0      	; 0x224 <LCD_Init+0x10>
 224:	00 00       	nop
 226:	82 e0       	ldi	r24, 0x02	; 2
 228:	0e 94 4a 00 	call	0x94	; 0x94 <LCDWriteInstruction>
 22c:	88 e2       	ldi	r24, 0x28	; 40
 22e:	0e 94 4a 00 	call	0x94	; 0x94 <LCDWriteInstruction>
 232:	8c e0       	ldi	r24, 0x0C	; 12
 234:	0e 94 4a 00 	call	0x94	; 0x94 <LCDWriteInstruction>
 238:	81 e0       	ldi	r24, 0x01	; 1
 23a:	0e 94 4a 00 	call	0x94	; 0x94 <LCDWriteInstruction>
 23e:	8f ec       	ldi	r24, 0xCF	; 207
 240:	97 e0       	ldi	r25, 0x07	; 7
 242:	01 97       	sbiw	r24, 0x01	; 1
 244:	f1 f7       	brne	.-4      	; 0x242 <LCD_Init+0x2e>
 246:	00 c0       	rjmp	.+0      	; 0x248 <LCD_Init+0x34>
 248:	00 00       	nop
 24a:	86 e0       	ldi	r24, 0x06	; 6
 24c:	0e 94 4a 00 	call	0x94	; 0x94 <LCDWriteInstruction>
 250:	08 95       	ret

00000252 <LCD_WriteChar>:
 252:	0e 94 aa 00 	call	0x154	; 0x154 <LCDWriteData>
 256:	08 95       	ret

00000258 <LCD_WriteNumber>:
 258:	ef 92       	push	r14
 25a:	ff 92       	push	r15
 25c:	1f 93       	push	r17
 25e:	cf 93       	push	r28
 260:	df 93       	push	r29
 262:	cd b7       	in	r28, 0x3d	; 61
 264:	de b7       	in	r29, 0x3e	; 62
 266:	60 97       	sbiw	r28, 0x10	; 16
 268:	0f b6       	in	r0, 0x3f	; 63
 26a:	f8 94       	cli
 26c:	de bf       	out	0x3e, r29	; 62
 26e:	0f be       	out	0x3f, r0	; 63
 270:	cd bf       	out	0x3d, r28	; 61
 272:	7c 01       	movw	r14, r24
 274:	00 97       	sbiw	r24, 0x00	; 0
 276:	21 f4       	brne	.+8      	; 0x280 <LCD_WriteNumber+0x28>
 278:	80 e3       	ldi	r24, 0x30	; 48
 27a:	0e 94 29 01 	call	0x252	; 0x252 <LCD_WriteChar>
 27e:	2d c0       	rjmp	.+90     	; 0x2da <LCD_WriteNumber+0x82>
 280:	99 23       	and	r25, r25
 282:	34 f4       	brge	.+12     	; 0x290 <LCD_WriteNumber+0x38>
 284:	f1 94       	neg	r15
 286:	e1 94       	neg	r14
 288:	f1 08       	sbc	r15, r1
 28a:	8d e2       	ldi	r24, 0x2D	; 45
 28c:	0e 94 29 01 	call	0x252	; 0x252 <LCD_WriteChar>
 290:	10 e0       	ldi	r17, 0x00	; 0
 292:	10 c0       	rjmp	.+32     	; 0x2b4 <LCD_WriteNumber+0x5c>
 294:	c7 01       	movw	r24, r14
 296:	6a e0       	ldi	r22, 0x0A	; 10
 298:	70 e0       	ldi	r23, 0x00	; 0
 29a:	0e 94 01 06 	call	0xc02	; 0xc02 <__divmodhi4>
 29e:	e1 e0       	ldi	r30, 0x01	; 1
 2a0:	f0 e0       	ldi	r31, 0x00	; 0
 2a2:	ec 0f       	add	r30, r28
 2a4:	fd 1f       	adc	r31, r29
 2a6:	e1 0f       	add	r30, r17
 2a8:	f1 1d       	adc	r31, r1
 2aa:	80 5d       	subi	r24, 0xD0	; 208
 2ac:	80 83       	st	Z, r24
 2ae:	e6 2e       	mov	r14, r22
 2b0:	f7 2e       	mov	r15, r23
 2b2:	1f 5f       	subi	r17, 0xFF	; 255
 2b4:	1e 14       	cp	r1, r14
 2b6:	1f 04       	cpc	r1, r15
 2b8:	6c f3       	brlt	.-38     	; 0x294 <LCD_WriteNumber+0x3c>
 2ba:	11 50       	subi	r17, 0x01	; 1
 2bc:	0c c0       	rjmp	.+24     	; 0x2d6 <LCD_WriteNumber+0x7e>
 2be:	e1 e0       	ldi	r30, 0x01	; 1
 2c0:	f0 e0       	ldi	r31, 0x00	; 0
 2c2:	ec 0f       	add	r30, r28
 2c4:	fd 1f       	adc	r31, r29
 2c6:	e1 0f       	add	r30, r17
 2c8:	f1 1d       	adc	r31, r1
 2ca:	17 fd       	sbrc	r17, 7
 2cc:	fa 95       	dec	r31
 2ce:	80 81       	ld	r24, Z
 2d0:	0e 94 29 01 	call	0x252	; 0x252 <LCD_WriteChar>
 2d4:	11 50       	subi	r17, 0x01	; 1
 2d6:	11 23       	and	r17, r17
 2d8:	94 f7       	brge	.-28     	; 0x2be <LCD_WriteNumber+0x66>
 2da:	60 96       	adiw	r28, 0x10	; 16
 2dc:	0f b6       	in	r0, 0x3f	; 63
 2de:	f8 94       	cli
 2e0:	de bf       	out	0x3e, r29	; 62
 2e2:	0f be       	out	0x3f, r0	; 63
 2e4:	cd bf       	out	0x3d, r28	; 61
 2e6:	df 91       	pop	r29
 2e8:	cf 91       	pop	r28
 2ea:	1f 91       	pop	r17
 2ec:	ff 90       	pop	r15
 2ee:	ef 90       	pop	r14
 2f0:	08 95       	ret

000002f2 <LCDGoTo>:
 2f2:	81 11       	cpse	r24, r1
 2f4:	05 c0       	rjmp	.+10     	; 0x300 <LCDGoTo+0xe>
 2f6:	80 e8       	ldi	r24, 0x80	; 128
 2f8:	86 0f       	add	r24, r22
 2fa:	0e 94 4a 00 	call	0x94	; 0x94 <LCDWriteInstruction>
 2fe:	08 95       	ret
 300:	81 30       	cpi	r24, 0x01	; 1
 302:	21 f4       	brne	.+8      	; 0x30c <LCDGoTo+0x1a>
 304:	80 ec       	ldi	r24, 0xC0	; 192
 306:	86 0f       	add	r24, r22
 308:	0e 94 4a 00 	call	0x94	; 0x94 <LCDWriteInstruction>
 30c:	08 95       	ret

0000030e <F1>:
 30e:	8c b5       	in	r24, 0x2c	; 44
 310:	9d b5       	in	r25, 0x2d	; 45
 312:	90 93 85 00 	sts	0x0085, r25	; 0x800085 <t1+0x1>
 316:	80 93 84 00 	sts	0x0084, r24	; 0x800084 <t1>
 31a:	08 95       	ret

0000031c <F2>:
 31c:	8c b5       	in	r24, 0x2c	; 44
 31e:	9d b5       	in	r25, 0x2d	; 45
 320:	90 93 83 00 	sts	0x0083, r25	; 0x800083 <t2+0x1>
 324:	80 93 82 00 	sts	0x0082, r24	; 0x800082 <t2>
 328:	08 95       	ret

0000032a <main>:
 32a:	78 94       	sei
 32c:	0e 94 8c 03 	call	0x718	; 0x718 <DIO_VidIntallPins>
 330:	0e 94 0a 01 	call	0x214	; 0x214 <LCD_Init>
 334:	0e 94 49 00 	call	0x92	; 0x92 <KeyPad_Init>
 338:	65 e0       	ldi	r22, 0x05	; 5
 33a:	81 e0       	ldi	r24, 0x01	; 1
 33c:	0e 94 e1 01 	call	0x3c2	; 0x3c2 <ADCInit>
 340:	62 e0       	ldi	r22, 0x02	; 2
 342:	80 e0       	ldi	r24, 0x00	; 0
 344:	0e 94 ec 04 	call	0x9d8	; 0x9d8 <TIMER1_INIT>
 348:	0e 94 40 05 	call	0xa80	; 0xa80 <TIMER1_OVF_InterruptEnable>
 34c:	8e e8       	ldi	r24, 0x8E	; 142
 34e:	91 e0       	ldi	r25, 0x01	; 1
 350:	0e 94 44 05 	call	0xa88	; 0xa88 <TIMER1_OVF_SetCallBack>
 354:	63 e0       	ldi	r22, 0x03	; 3
 356:	80 e0       	ldi	r24, 0x00	; 0
 358:	0e 94 ae 03 	call	0x75c	; 0x75c <ExternalInttruptwillbeActivatedWith>
 35c:	80 e0       	ldi	r24, 0x00	; 0
 35e:	0e 94 9c 03 	call	0x738	; 0x738 <ExternalInterruptEnable>
 362:	67 e8       	ldi	r22, 0x87	; 135
 364:	71 e0       	ldi	r23, 0x01	; 1
 366:	80 e0       	ldi	r24, 0x00	; 0
 368:	0e 94 0a 04 	call	0x814	; 0x814 <Ext_SetCallBack>
 36c:	63 e0       	ldi	r22, 0x03	; 3
 36e:	81 e0       	ldi	r24, 0x01	; 1
 370:	0e 94 ae 03 	call	0x75c	; 0x75c <ExternalInttruptwillbeActivatedWith>
 374:	81 e0       	ldi	r24, 0x01	; 1
 376:	0e 94 9c 03 	call	0x738	; 0x738 <ExternalInterruptEnable>
 37a:	6e e8       	ldi	r22, 0x8E	; 142
 37c:	71 e0       	ldi	r23, 0x01	; 1
 37e:	80 e0       	ldi	r24, 0x00	; 0
 380:	0e 94 0a 04 	call	0x814	; 0x814 <Ext_SetCallBack>
 384:	80 91 82 00 	lds	r24, 0x0082	; 0x800082 <t2>
 388:	90 91 83 00 	lds	r25, 0x0083	; 0x800083 <t2+0x1>
 38c:	20 91 84 00 	lds	r18, 0x0084	; 0x800084 <t1>
 390:	30 91 85 00 	lds	r19, 0x0085	; 0x800085 <t1+0x1>
 394:	82 1b       	sub	r24, r18
 396:	93 0b       	sbc	r25, r19
 398:	20 91 86 00 	lds	r18, 0x0086	; 0x800086 <c>
 39c:	30 91 87 00 	lds	r19, 0x0087	; 0x800087 <c+0x1>
 3a0:	82 1b       	sub	r24, r18
 3a2:	93 0b       	sbc	r25, r19
 3a4:	90 93 81 00 	sts	0x0081, r25	; 0x800081 <__data_end+0x1>
 3a8:	80 93 80 00 	sts	0x0080, r24	; 0x800080 <__data_end>
 3ac:	60 e0       	ldi	r22, 0x00	; 0
 3ae:	80 e0       	ldi	r24, 0x00	; 0
 3b0:	0e 94 79 01 	call	0x2f2	; 0x2f2 <LCDGoTo>
 3b4:	80 91 80 00 	lds	r24, 0x0080	; 0x800080 <__data_end>
 3b8:	90 91 81 00 	lds	r25, 0x0081	; 0x800081 <__data_end+0x1>
 3bc:	0e 94 2c 01 	call	0x258	; 0x258 <LCD_WriteNumber>
 3c0:	e1 cf       	rjmp	.-62     	; 0x384 <main+0x5a>

000003c2 <ADCInit>:
 3c2:	96 b1       	in	r25, 0x06	; 6
 3c4:	98 7f       	andi	r25, 0xF8	; 248
 3c6:	96 b9       	out	0x06, r25	; 6
 3c8:	96 b1       	in	r25, 0x06	; 6
 3ca:	69 2b       	or	r22, r25
 3cc:	66 b9       	out	0x06, r22	; 6
 3ce:	97 b1       	in	r25, 0x07	; 7
 3d0:	9f 7d       	andi	r25, 0xDF	; 223
 3d2:	97 b9       	out	0x07, r25	; 7
 3d4:	81 30       	cpi	r24, 0x01	; 1
 3d6:	59 f0       	breq	.+22     	; 0x3ee <ADCInit+0x2c>
 3d8:	18 f0       	brcs	.+6      	; 0x3e0 <ADCInit+0x1e>
 3da:	82 30       	cpi	r24, 0x02	; 2
 3dc:	79 f0       	breq	.+30     	; 0x3fc <ADCInit+0x3a>
 3de:	14 c0       	rjmp	.+40     	; 0x408 <__EEPROM_REGION_LENGTH__+0x8>
 3e0:	87 b1       	in	r24, 0x07	; 7
 3e2:	8f 7b       	andi	r24, 0xBF	; 191
 3e4:	87 b9       	out	0x07, r24	; 7
 3e6:	87 b1       	in	r24, 0x07	; 7
 3e8:	8f 77       	andi	r24, 0x7F	; 127
 3ea:	87 b9       	out	0x07, r24	; 7
 3ec:	0d c0       	rjmp	.+26     	; 0x408 <__EEPROM_REGION_LENGTH__+0x8>
 3ee:	87 b1       	in	r24, 0x07	; 7
 3f0:	80 64       	ori	r24, 0x40	; 64
 3f2:	87 b9       	out	0x07, r24	; 7
 3f4:	87 b1       	in	r24, 0x07	; 7
 3f6:	8f 77       	andi	r24, 0x7F	; 127
 3f8:	87 b9       	out	0x07, r24	; 7
 3fa:	06 c0       	rjmp	.+12     	; 0x408 <__EEPROM_REGION_LENGTH__+0x8>
 3fc:	87 b1       	in	r24, 0x07	; 7
 3fe:	80 64       	ori	r24, 0x40	; 64
 400:	87 b9       	out	0x07, r24	; 7
 402:	87 b1       	in	r24, 0x07	; 7
 404:	80 68       	ori	r24, 0x80	; 128
 406:	87 b9       	out	0x07, r24	; 7
 408:	86 b1       	in	r24, 0x06	; 6
 40a:	80 68       	ori	r24, 0x80	; 128
 40c:	86 b9       	out	0x06, r24	; 6
 40e:	08 95       	ret

00000410 <DIO_VidInitPin>:
 410:	98 2f       	mov	r25, r24
 412:	96 95       	lsr	r25
 414:	96 95       	lsr	r25
 416:	96 95       	lsr	r25
 418:	87 70       	andi	r24, 0x07	; 7
 41a:	61 30       	cpi	r22, 0x01	; 1
 41c:	09 f4       	brne	.+2      	; 0x420 <DIO_VidInitPin+0x10>
 41e:	55 c0       	rjmp	.+170    	; 0x4ca <DIO_VidInitPin+0xba>
 420:	20 f0       	brcs	.+8      	; 0x42a <DIO_VidInitPin+0x1a>
 422:	62 30       	cpi	r22, 0x02	; 2
 424:	09 f4       	brne	.+2      	; 0x428 <DIO_VidInitPin+0x18>
 426:	a1 c0       	rjmp	.+322    	; 0x56a <DIO_VidInitPin+0x15a>
 428:	08 95       	ret
 42a:	91 30       	cpi	r25, 0x01	; 1
 42c:	c1 f0       	breq	.+48     	; 0x45e <DIO_VidInitPin+0x4e>
 42e:	28 f0       	brcs	.+10     	; 0x43a <DIO_VidInitPin+0x2a>
 430:	92 30       	cpi	r25, 0x02	; 2
 432:	39 f1       	breq	.+78     	; 0x482 <DIO_VidInitPin+0x72>
 434:	93 30       	cpi	r25, 0x03	; 3
 436:	b9 f1       	breq	.+110    	; 0x4a6 <DIO_VidInitPin+0x96>
 438:	08 95       	ret
 43a:	4a b3       	in	r20, 0x1a	; 26
 43c:	21 e0       	ldi	r18, 0x01	; 1
 43e:	30 e0       	ldi	r19, 0x00	; 0
 440:	b9 01       	movw	r22, r18
 442:	02 c0       	rjmp	.+4      	; 0x448 <DIO_VidInitPin+0x38>
 444:	66 0f       	add	r22, r22
 446:	77 1f       	adc	r23, r23
 448:	8a 95       	dec	r24
 44a:	e2 f7       	brpl	.-8      	; 0x444 <DIO_VidInitPin+0x34>
 44c:	cb 01       	movw	r24, r22
 44e:	94 2f       	mov	r25, r20
 450:	98 2b       	or	r25, r24
 452:	9a bb       	out	0x1a, r25	; 26
 454:	9b b3       	in	r25, 0x1b	; 27
 456:	80 95       	com	r24
 458:	89 23       	and	r24, r25
 45a:	8b bb       	out	0x1b, r24	; 27
 45c:	08 95       	ret
 45e:	47 b3       	in	r20, 0x17	; 23
 460:	21 e0       	ldi	r18, 0x01	; 1
 462:	30 e0       	ldi	r19, 0x00	; 0
 464:	b9 01       	movw	r22, r18
 466:	02 c0       	rjmp	.+4      	; 0x46c <DIO_VidInitPin+0x5c>
 468:	66 0f       	add	r22, r22
 46a:	77 1f       	adc	r23, r23
 46c:	8a 95       	dec	r24
 46e:	e2 f7       	brpl	.-8      	; 0x468 <DIO_VidInitPin+0x58>
 470:	cb 01       	movw	r24, r22
 472:	94 2f       	mov	r25, r20
 474:	98 2b       	or	r25, r24
 476:	97 bb       	out	0x17, r25	; 23
 478:	98 b3       	in	r25, 0x18	; 24
 47a:	80 95       	com	r24
 47c:	89 23       	and	r24, r25
 47e:	88 bb       	out	0x18, r24	; 24
 480:	08 95       	ret
 482:	44 b3       	in	r20, 0x14	; 20
 484:	21 e0       	ldi	r18, 0x01	; 1
 486:	30 e0       	ldi	r19, 0x00	; 0
 488:	b9 01       	movw	r22, r18
 48a:	02 c0       	rjmp	.+4      	; 0x490 <DIO_VidInitPin+0x80>
 48c:	66 0f       	add	r22, r22
 48e:	77 1f       	adc	r23, r23
 490:	8a 95       	dec	r24
 492:	e2 f7       	brpl	.-8      	; 0x48c <DIO_VidInitPin+0x7c>
 494:	cb 01       	movw	r24, r22
 496:	94 2f       	mov	r25, r20
 498:	98 2b       	or	r25, r24
 49a:	94 bb       	out	0x14, r25	; 20
 49c:	95 b3       	in	r25, 0x15	; 21
 49e:	80 95       	com	r24
 4a0:	89 23       	and	r24, r25
 4a2:	85 bb       	out	0x15, r24	; 21
 4a4:	08 95       	ret
 4a6:	41 b3       	in	r20, 0x11	; 17
 4a8:	21 e0       	ldi	r18, 0x01	; 1
 4aa:	30 e0       	ldi	r19, 0x00	; 0
 4ac:	b9 01       	movw	r22, r18
 4ae:	02 c0       	rjmp	.+4      	; 0x4b4 <DIO_VidInitPin+0xa4>
 4b0:	66 0f       	add	r22, r22
 4b2:	77 1f       	adc	r23, r23
 4b4:	8a 95       	dec	r24
 4b6:	e2 f7       	brpl	.-8      	; 0x4b0 <DIO_VidInitPin+0xa0>
 4b8:	cb 01       	movw	r24, r22
 4ba:	94 2f       	mov	r25, r20
 4bc:	98 2b       	or	r25, r24
 4be:	91 bb       	out	0x11, r25	; 17
 4c0:	92 b3       	in	r25, 0x12	; 18
 4c2:	80 95       	com	r24
 4c4:	89 23       	and	r24, r25
 4c6:	82 bb       	out	0x12, r24	; 18
 4c8:	08 95       	ret
 4ca:	91 30       	cpi	r25, 0x01	; 1
 4cc:	c1 f0       	breq	.+48     	; 0x4fe <DIO_VidInitPin+0xee>
 4ce:	28 f0       	brcs	.+10     	; 0x4da <DIO_VidInitPin+0xca>
 4d0:	92 30       	cpi	r25, 0x02	; 2
 4d2:	39 f1       	breq	.+78     	; 0x522 <DIO_VidInitPin+0x112>
 4d4:	93 30       	cpi	r25, 0x03	; 3
 4d6:	b9 f1       	breq	.+110    	; 0x546 <DIO_VidInitPin+0x136>
 4d8:	08 95       	ret
 4da:	4a b3       	in	r20, 0x1a	; 26
 4dc:	21 e0       	ldi	r18, 0x01	; 1
 4de:	30 e0       	ldi	r19, 0x00	; 0
 4e0:	b9 01       	movw	r22, r18
 4e2:	02 c0       	rjmp	.+4      	; 0x4e8 <DIO_VidInitPin+0xd8>
 4e4:	66 0f       	add	r22, r22
 4e6:	77 1f       	adc	r23, r23
 4e8:	8a 95       	dec	r24
 4ea:	e2 f7       	brpl	.-8      	; 0x4e4 <DIO_VidInitPin+0xd4>
 4ec:	cb 01       	movw	r24, r22
 4ee:	80 95       	com	r24
 4f0:	94 2f       	mov	r25, r20
 4f2:	98 23       	and	r25, r24
 4f4:	9a bb       	out	0x1a, r25	; 26
 4f6:	9b b3       	in	r25, 0x1b	; 27
 4f8:	89 23       	and	r24, r25
 4fa:	8b bb       	out	0x1b, r24	; 27
 4fc:	08 95       	ret
 4fe:	47 b3       	in	r20, 0x17	; 23
 500:	21 e0       	ldi	r18, 0x01	; 1
 502:	30 e0       	ldi	r19, 0x00	; 0
 504:	b9 01       	movw	r22, r18
 506:	02 c0       	rjmp	.+4      	; 0x50c <DIO_VidInitPin+0xfc>
 508:	66 0f       	add	r22, r22
 50a:	77 1f       	adc	r23, r23
 50c:	8a 95       	dec	r24
 50e:	e2 f7       	brpl	.-8      	; 0x508 <DIO_VidInitPin+0xf8>
 510:	cb 01       	movw	r24, r22
 512:	80 95       	com	r24
 514:	94 2f       	mov	r25, r20
 516:	98 23       	and	r25, r24
 518:	97 bb       	out	0x17, r25	; 23
 51a:	98 b3       	in	r25, 0x18	; 24
 51c:	89 23       	and	r24, r25
 51e:	88 bb       	out	0x18, r24	; 24
 520:	08 95       	ret
 522:	44 b3       	in	r20, 0x14	; 20
 524:	21 e0       	ldi	r18, 0x01	; 1
 526:	30 e0       	ldi	r19, 0x00	; 0
 528:	b9 01       	movw	r22, r18
 52a:	02 c0       	rjmp	.+4      	; 0x530 <DIO_VidInitPin+0x120>
 52c:	66 0f       	add	r22, r22
 52e:	77 1f       	adc	r23, r23
 530:	8a 95       	dec	r24
 532:	e2 f7       	brpl	.-8      	; 0x52c <DIO_VidInitPin+0x11c>
 534:	cb 01       	movw	r24, r22
 536:	80 95       	com	r24
 538:	94 2f       	mov	r25, r20
 53a:	98 23       	and	r25, r24
 53c:	94 bb       	out	0x14, r25	; 20
 53e:	95 b3       	in	r25, 0x15	; 21
 540:	89 23       	and	r24, r25
 542:	85 bb       	out	0x15, r24	; 21
 544:	08 95       	ret
 546:	41 b3       	in	r20, 0x11	; 17
 548:	21 e0       	ldi	r18, 0x01	; 1
 54a:	30 e0       	ldi	r19, 0x00	; 0
 54c:	b9 01       	movw	r22, r18
 54e:	02 c0       	rjmp	.+4      	; 0x554 <DIO_VidInitPin+0x144>
 550:	66 0f       	add	r22, r22
 552:	77 1f       	adc	r23, r23
 554:	8a 95       	dec	r24
 556:	e2 f7       	brpl	.-8      	; 0x550 <DIO_VidInitPin+0x140>
 558:	cb 01       	movw	r24, r22
 55a:	80 95       	com	r24
 55c:	94 2f       	mov	r25, r20
 55e:	98 23       	and	r25, r24
 560:	91 bb       	out	0x11, r25	; 17
 562:	92 b3       	in	r25, 0x12	; 18
 564:	89 23       	and	r24, r25
 566:	82 bb       	out	0x12, r24	; 18
 568:	08 95       	ret
 56a:	91 30       	cpi	r25, 0x01	; 1
 56c:	c1 f0       	breq	.+48     	; 0x59e <DIO_VidInitPin+0x18e>
 56e:	28 f0       	brcs	.+10     	; 0x57a <DIO_VidInitPin+0x16a>
 570:	92 30       	cpi	r25, 0x02	; 2
 572:	39 f1       	breq	.+78     	; 0x5c2 <DIO_VidInitPin+0x1b2>
 574:	93 30       	cpi	r25, 0x03	; 3
 576:	b9 f1       	breq	.+110    	; 0x5e6 <DIO_VidInitPin+0x1d6>
 578:	08 95       	ret
 57a:	4a b3       	in	r20, 0x1a	; 26
 57c:	21 e0       	ldi	r18, 0x01	; 1
 57e:	30 e0       	ldi	r19, 0x00	; 0
 580:	b9 01       	movw	r22, r18
 582:	02 c0       	rjmp	.+4      	; 0x588 <DIO_VidInitPin+0x178>
 584:	66 0f       	add	r22, r22
 586:	77 1f       	adc	r23, r23
 588:	8a 95       	dec	r24
 58a:	e2 f7       	brpl	.-8      	; 0x584 <DIO_VidInitPin+0x174>
 58c:	cb 01       	movw	r24, r22
 58e:	96 2f       	mov	r25, r22
 590:	90 95       	com	r25
 592:	94 23       	and	r25, r20
 594:	9a bb       	out	0x1a, r25	; 26
 596:	9b b3       	in	r25, 0x1b	; 27
 598:	89 2b       	or	r24, r25
 59a:	8b bb       	out	0x1b, r24	; 27
 59c:	08 95       	ret
 59e:	47 b3       	in	r20, 0x17	; 23
 5a0:	21 e0       	ldi	r18, 0x01	; 1
 5a2:	30 e0       	ldi	r19, 0x00	; 0
 5a4:	b9 01       	movw	r22, r18
 5a6:	02 c0       	rjmp	.+4      	; 0x5ac <DIO_VidInitPin+0x19c>
 5a8:	66 0f       	add	r22, r22
 5aa:	77 1f       	adc	r23, r23
 5ac:	8a 95       	dec	r24
 5ae:	e2 f7       	brpl	.-8      	; 0x5a8 <DIO_VidInitPin+0x198>
 5b0:	cb 01       	movw	r24, r22
 5b2:	96 2f       	mov	r25, r22
 5b4:	90 95       	com	r25
 5b6:	94 23       	and	r25, r20
 5b8:	97 bb       	out	0x17, r25	; 23
 5ba:	98 b3       	in	r25, 0x18	; 24
 5bc:	89 2b       	or	r24, r25
 5be:	88 bb       	out	0x18, r24	; 24
 5c0:	08 95       	ret
 5c2:	44 b3       	in	r20, 0x14	; 20
 5c4:	21 e0       	ldi	r18, 0x01	; 1
 5c6:	30 e0       	ldi	r19, 0x00	; 0
 5c8:	b9 01       	movw	r22, r18
 5ca:	02 c0       	rjmp	.+4      	; 0x5d0 <DIO_VidInitPin+0x1c0>
 5cc:	66 0f       	add	r22, r22
 5ce:	77 1f       	adc	r23, r23
 5d0:	8a 95       	dec	r24
 5d2:	e2 f7       	brpl	.-8      	; 0x5cc <DIO_VidInitPin+0x1bc>
 5d4:	cb 01       	movw	r24, r22
 5d6:	96 2f       	mov	r25, r22
 5d8:	90 95       	com	r25
 5da:	94 23       	and	r25, r20
 5dc:	94 bb       	out	0x14, r25	; 20
 5de:	95 b3       	in	r25, 0x15	; 21
 5e0:	89 2b       	or	r24, r25
 5e2:	85 bb       	out	0x15, r24	; 21
 5e4:	08 95       	ret
 5e6:	41 b3       	in	r20, 0x11	; 17
 5e8:	21 e0       	ldi	r18, 0x01	; 1
 5ea:	30 e0       	ldi	r19, 0x00	; 0
 5ec:	b9 01       	movw	r22, r18
 5ee:	02 c0       	rjmp	.+4      	; 0x5f4 <DIO_VidInitPin+0x1e4>
 5f0:	66 0f       	add	r22, r22
 5f2:	77 1f       	adc	r23, r23
 5f4:	8a 95       	dec	r24
 5f6:	e2 f7       	brpl	.-8      	; 0x5f0 <DIO_VidInitPin+0x1e0>
 5f8:	cb 01       	movw	r24, r22
 5fa:	96 2f       	mov	r25, r22
 5fc:	90 95       	com	r25
 5fe:	94 23       	and	r25, r20
 600:	91 bb       	out	0x11, r25	; 17
 602:	92 b3       	in	r25, 0x12	; 18
 604:	89 2b       	or	r24, r25
 606:	82 bb       	out	0x12, r24	; 18
 608:	08 95       	ret

0000060a <DIO_VidWritePin>:
 60a:	98 2f       	mov	r25, r24
 60c:	96 95       	lsr	r25
 60e:	96 95       	lsr	r25
 610:	96 95       	lsr	r25
 612:	87 70       	andi	r24, 0x07	; 7
 614:	66 23       	and	r22, r22
 616:	21 f0       	breq	.+8      	; 0x620 <DIO_VidWritePin+0x16>
 618:	61 30       	cpi	r22, 0x01	; 1
 61a:	09 f4       	brne	.+2      	; 0x61e <DIO_VidWritePin+0x14>
 61c:	41 c0       	rjmp	.+130    	; 0x6a0 <DIO_VidWritePin+0x96>
 61e:	08 95       	ret
 620:	91 30       	cpi	r25, 0x01	; 1
 622:	a1 f0       	breq	.+40     	; 0x64c <DIO_VidWritePin+0x42>
 624:	28 f0       	brcs	.+10     	; 0x630 <DIO_VidWritePin+0x26>
 626:	92 30       	cpi	r25, 0x02	; 2
 628:	f9 f0       	breq	.+62     	; 0x668 <DIO_VidWritePin+0x5e>
 62a:	93 30       	cpi	r25, 0x03	; 3
 62c:	59 f1       	breq	.+86     	; 0x684 <DIO_VidWritePin+0x7a>
 62e:	08 95       	ret
 630:	4b b3       	in	r20, 0x1b	; 27
 632:	21 e0       	ldi	r18, 0x01	; 1
 634:	30 e0       	ldi	r19, 0x00	; 0
 636:	b9 01       	movw	r22, r18
 638:	02 c0       	rjmp	.+4      	; 0x63e <DIO_VidWritePin+0x34>
 63a:	66 0f       	add	r22, r22
 63c:	77 1f       	adc	r23, r23
 63e:	8a 95       	dec	r24
 640:	e2 f7       	brpl	.-8      	; 0x63a <DIO_VidWritePin+0x30>
 642:	cb 01       	movw	r24, r22
 644:	80 95       	com	r24
 646:	84 23       	and	r24, r20
 648:	8b bb       	out	0x1b, r24	; 27
 64a:	08 95       	ret
 64c:	48 b3       	in	r20, 0x18	; 24
 64e:	21 e0       	ldi	r18, 0x01	; 1
 650:	30 e0       	ldi	r19, 0x00	; 0
 652:	b9 01       	movw	r22, r18
 654:	02 c0       	rjmp	.+4      	; 0x65a <DIO_VidWritePin+0x50>
 656:	66 0f       	add	r22, r22
 658:	77 1f       	adc	r23, r23
 65a:	8a 95       	dec	r24
 65c:	e2 f7       	brpl	.-8      	; 0x656 <DIO_VidWritePin+0x4c>
 65e:	cb 01       	movw	r24, r22
 660:	80 95       	com	r24
 662:	84 23       	and	r24, r20
 664:	88 bb       	out	0x18, r24	; 24
 666:	08 95       	ret
 668:	45 b3       	in	r20, 0x15	; 21
 66a:	21 e0       	ldi	r18, 0x01	; 1
 66c:	30 e0       	ldi	r19, 0x00	; 0
 66e:	b9 01       	movw	r22, r18
 670:	02 c0       	rjmp	.+4      	; 0x676 <DIO_VidWritePin+0x6c>
 672:	66 0f       	add	r22, r22
 674:	77 1f       	adc	r23, r23
 676:	8a 95       	dec	r24
 678:	e2 f7       	brpl	.-8      	; 0x672 <DIO_VidWritePin+0x68>
 67a:	cb 01       	movw	r24, r22
 67c:	80 95       	com	r24
 67e:	84 23       	and	r24, r20
 680:	85 bb       	out	0x15, r24	; 21
 682:	08 95       	ret
 684:	42 b3       	in	r20, 0x12	; 18
 686:	21 e0       	ldi	r18, 0x01	; 1
 688:	30 e0       	ldi	r19, 0x00	; 0
 68a:	b9 01       	movw	r22, r18
 68c:	02 c0       	rjmp	.+4      	; 0x692 <DIO_VidWritePin+0x88>
 68e:	66 0f       	add	r22, r22
 690:	77 1f       	adc	r23, r23
 692:	8a 95       	dec	r24
 694:	e2 f7       	brpl	.-8      	; 0x68e <DIO_VidWritePin+0x84>
 696:	cb 01       	movw	r24, r22
 698:	80 95       	com	r24
 69a:	84 23       	and	r24, r20
 69c:	82 bb       	out	0x12, r24	; 18
 69e:	08 95       	ret
 6a0:	91 30       	cpi	r25, 0x01	; 1
 6a2:	99 f0       	breq	.+38     	; 0x6ca <DIO_VidWritePin+0xc0>
 6a4:	28 f0       	brcs	.+10     	; 0x6b0 <DIO_VidWritePin+0xa6>
 6a6:	92 30       	cpi	r25, 0x02	; 2
 6a8:	e9 f0       	breq	.+58     	; 0x6e4 <DIO_VidWritePin+0xda>
 6aa:	93 30       	cpi	r25, 0x03	; 3
 6ac:	41 f1       	breq	.+80     	; 0x6fe <DIO_VidWritePin+0xf4>
 6ae:	08 95       	ret
 6b0:	4b b3       	in	r20, 0x1b	; 27
 6b2:	21 e0       	ldi	r18, 0x01	; 1
 6b4:	30 e0       	ldi	r19, 0x00	; 0
 6b6:	b9 01       	movw	r22, r18
 6b8:	02 c0       	rjmp	.+4      	; 0x6be <DIO_VidWritePin+0xb4>
 6ba:	66 0f       	add	r22, r22
 6bc:	77 1f       	adc	r23, r23
 6be:	8a 95       	dec	r24
 6c0:	e2 f7       	brpl	.-8      	; 0x6ba <DIO_VidWritePin+0xb0>
 6c2:	cb 01       	movw	r24, r22
 6c4:	84 2b       	or	r24, r20
 6c6:	8b bb       	out	0x1b, r24	; 27
 6c8:	08 95       	ret
 6ca:	48 b3       	in	r20, 0x18	; 24
 6cc:	21 e0       	ldi	r18, 0x01	; 1
 6ce:	30 e0       	ldi	r19, 0x00	; 0
 6d0:	b9 01       	movw	r22, r18
 6d2:	02 c0       	rjmp	.+4      	; 0x6d8 <DIO_VidWritePin+0xce>
 6d4:	66 0f       	add	r22, r22
 6d6:	77 1f       	adc	r23, r23
 6d8:	8a 95       	dec	r24
 6da:	e2 f7       	brpl	.-8      	; 0x6d4 <DIO_VidWritePin+0xca>
 6dc:	cb 01       	movw	r24, r22
 6de:	84 2b       	or	r24, r20
 6e0:	88 bb       	out	0x18, r24	; 24
 6e2:	08 95       	ret
 6e4:	45 b3       	in	r20, 0x15	; 21
 6e6:	21 e0       	ldi	r18, 0x01	; 1
 6e8:	30 e0       	ldi	r19, 0x00	; 0
 6ea:	b9 01       	movw	r22, r18
 6ec:	02 c0       	rjmp	.+4      	; 0x6f2 <DIO_VidWritePin+0xe8>
 6ee:	66 0f       	add	r22, r22
 6f0:	77 1f       	adc	r23, r23
 6f2:	8a 95       	dec	r24
 6f4:	e2 f7       	brpl	.-8      	; 0x6ee <DIO_VidWritePin+0xe4>
 6f6:	cb 01       	movw	r24, r22
 6f8:	84 2b       	or	r24, r20
 6fa:	85 bb       	out	0x15, r24	; 21
 6fc:	08 95       	ret
 6fe:	42 b3       	in	r20, 0x12	; 18
 700:	21 e0       	ldi	r18, 0x01	; 1
 702:	30 e0       	ldi	r19, 0x00	; 0
 704:	b9 01       	movw	r22, r18
 706:	02 c0       	rjmp	.+4      	; 0x70c <DIO_VidWritePin+0x102>
 708:	66 0f       	add	r22, r22
 70a:	77 1f       	adc	r23, r23
 70c:	8a 95       	dec	r24
 70e:	e2 f7       	brpl	.-8      	; 0x708 <DIO_VidWritePin+0xfe>
 710:	cb 01       	movw	r24, r22
 712:	84 2b       	or	r24, r20
 714:	82 bb       	out	0x12, r24	; 18
 716:	08 95       	ret

00000718 <DIO_VidIntallPins>:
 718:	cf 93       	push	r28
 71a:	c0 e0       	ldi	r28, 0x00	; 0
 71c:	09 c0       	rjmp	.+18     	; 0x730 <DIO_VidIntallPins+0x18>
 71e:	ec 2f       	mov	r30, r28
 720:	f0 e0       	ldi	r31, 0x00	; 0
 722:	e0 5a       	subi	r30, 0xA0	; 160
 724:	ff 4f       	sbci	r31, 0xFF	; 255
 726:	60 81       	ld	r22, Z
 728:	8c 2f       	mov	r24, r28
 72a:	0e 94 08 02 	call	0x410	; 0x410 <DIO_VidInitPin>
 72e:	cf 5f       	subi	r28, 0xFF	; 255
 730:	c0 32       	cpi	r28, 0x20	; 32
 732:	a8 f3       	brcs	.-22     	; 0x71e <DIO_VidIntallPins+0x6>
 734:	cf 91       	pop	r28
 736:	08 95       	ret

00000738 <ExternalInterruptEnable>:
 738:	81 30       	cpi	r24, 0x01	; 1
 73a:	41 f0       	breq	.+16     	; 0x74c <ExternalInterruptEnable+0x14>
 73c:	18 f0       	brcs	.+6      	; 0x744 <ExternalInterruptEnable+0xc>
 73e:	82 30       	cpi	r24, 0x02	; 2
 740:	49 f0       	breq	.+18     	; 0x754 <ExternalInterruptEnable+0x1c>
 742:	08 95       	ret
 744:	8b b7       	in	r24, 0x3b	; 59
 746:	80 64       	ori	r24, 0x40	; 64
 748:	8b bf       	out	0x3b, r24	; 59
 74a:	08 95       	ret
 74c:	8b b7       	in	r24, 0x3b	; 59
 74e:	80 68       	ori	r24, 0x80	; 128
 750:	8b bf       	out	0x3b, r24	; 59
 752:	08 95       	ret
 754:	8b b7       	in	r24, 0x3b	; 59
 756:	80 62       	ori	r24, 0x20	; 32
 758:	8b bf       	out	0x3b, r24	; 59
 75a:	08 95       	ret

0000075c <ExternalInttruptwillbeActivatedWith>:
 75c:	61 11       	cpse	r22, r1
 75e:	13 c0       	rjmp	.+38     	; 0x786 <ExternalInttruptwillbeActivatedWith+0x2a>
 760:	88 23       	and	r24, r24
 762:	19 f0       	breq	.+6      	; 0x76a <ExternalInttruptwillbeActivatedWith+0xe>
 764:	81 30       	cpi	r24, 0x01	; 1
 766:	41 f0       	breq	.+16     	; 0x778 <ExternalInttruptwillbeActivatedWith+0x1c>
 768:	08 95       	ret
 76a:	85 b7       	in	r24, 0x35	; 53
 76c:	8e 7f       	andi	r24, 0xFE	; 254
 76e:	85 bf       	out	0x35, r24	; 53
 770:	85 b7       	in	r24, 0x35	; 53
 772:	8d 7f       	andi	r24, 0xFD	; 253
 774:	85 bf       	out	0x35, r24	; 53
 776:	08 95       	ret
 778:	85 b7       	in	r24, 0x35	; 53
 77a:	8b 7f       	andi	r24, 0xFB	; 251
 77c:	85 bf       	out	0x35, r24	; 53
 77e:	85 b7       	in	r24, 0x35	; 53
 780:	87 7f       	andi	r24, 0xF7	; 247
 782:	85 bf       	out	0x35, r24	; 53
 784:	08 95       	ret
 786:	61 30       	cpi	r22, 0x01	; 1
 788:	99 f4       	brne	.+38     	; 0x7b0 <ExternalInttruptwillbeActivatedWith+0x54>
 78a:	88 23       	and	r24, r24
 78c:	19 f0       	breq	.+6      	; 0x794 <ExternalInttruptwillbeActivatedWith+0x38>
 78e:	81 30       	cpi	r24, 0x01	; 1
 790:	41 f0       	breq	.+16     	; 0x7a2 <ExternalInttruptwillbeActivatedWith+0x46>
 792:	08 95       	ret
 794:	85 b7       	in	r24, 0x35	; 53
 796:	81 60       	ori	r24, 0x01	; 1
 798:	85 bf       	out	0x35, r24	; 53
 79a:	85 b7       	in	r24, 0x35	; 53
 79c:	8d 7f       	andi	r24, 0xFD	; 253
 79e:	85 bf       	out	0x35, r24	; 53
 7a0:	08 95       	ret
 7a2:	85 b7       	in	r24, 0x35	; 53
 7a4:	84 60       	ori	r24, 0x04	; 4
 7a6:	85 bf       	out	0x35, r24	; 53
 7a8:	85 b7       	in	r24, 0x35	; 53
 7aa:	87 7f       	andi	r24, 0xF7	; 247
 7ac:	85 bf       	out	0x35, r24	; 53
 7ae:	08 95       	ret
 7b0:	62 30       	cpi	r22, 0x02	; 2
 7b2:	c1 f4       	brne	.+48     	; 0x7e4 <ExternalInttruptwillbeActivatedWith+0x88>
 7b4:	81 30       	cpi	r24, 0x01	; 1
 7b6:	59 f0       	breq	.+22     	; 0x7ce <ExternalInttruptwillbeActivatedWith+0x72>
 7b8:	18 f0       	brcs	.+6      	; 0x7c0 <ExternalInttruptwillbeActivatedWith+0x64>
 7ba:	82 30       	cpi	r24, 0x02	; 2
 7bc:	79 f0       	breq	.+30     	; 0x7dc <ExternalInttruptwillbeActivatedWith+0x80>
 7be:	08 95       	ret
 7c0:	85 b7       	in	r24, 0x35	; 53
 7c2:	81 60       	ori	r24, 0x01	; 1
 7c4:	85 bf       	out	0x35, r24	; 53
 7c6:	85 b7       	in	r24, 0x35	; 53
 7c8:	82 60       	ori	r24, 0x02	; 2
 7ca:	85 bf       	out	0x35, r24	; 53
 7cc:	08 95       	ret
 7ce:	85 b7       	in	r24, 0x35	; 53
 7d0:	84 60       	ori	r24, 0x04	; 4
 7d2:	85 bf       	out	0x35, r24	; 53
 7d4:	85 b7       	in	r24, 0x35	; 53
 7d6:	88 60       	ori	r24, 0x08	; 8
 7d8:	85 bf       	out	0x35, r24	; 53
 7da:	08 95       	ret
 7dc:	84 b7       	in	r24, 0x34	; 52
 7de:	80 64       	ori	r24, 0x40	; 64
 7e0:	84 bf       	out	0x34, r24	; 52
 7e2:	08 95       	ret
 7e4:	81 30       	cpi	r24, 0x01	; 1
 7e6:	59 f0       	breq	.+22     	; 0x7fe <ExternalInttruptwillbeActivatedWith+0xa2>
 7e8:	18 f0       	brcs	.+6      	; 0x7f0 <ExternalInttruptwillbeActivatedWith+0x94>
 7ea:	82 30       	cpi	r24, 0x02	; 2
 7ec:	79 f0       	breq	.+30     	; 0x80c <__DATA_REGION_LENGTH__+0xc>
 7ee:	08 95       	ret
 7f0:	85 b7       	in	r24, 0x35	; 53
 7f2:	8e 7f       	andi	r24, 0xFE	; 254
 7f4:	85 bf       	out	0x35, r24	; 53
 7f6:	85 b7       	in	r24, 0x35	; 53
 7f8:	82 60       	ori	r24, 0x02	; 2
 7fa:	85 bf       	out	0x35, r24	; 53
 7fc:	08 95       	ret
 7fe:	85 b7       	in	r24, 0x35	; 53
 800:	8b 7f       	andi	r24, 0xFB	; 251
 802:	85 bf       	out	0x35, r24	; 53
 804:	85 b7       	in	r24, 0x35	; 53
 806:	88 60       	ori	r24, 0x08	; 8
 808:	85 bf       	out	0x35, r24	; 53
 80a:	08 95       	ret
 80c:	84 b7       	in	r24, 0x34	; 52
 80e:	8f 7b       	andi	r24, 0xBF	; 191
 810:	84 bf       	out	0x34, r24	; 52
 812:	08 95       	ret

00000814 <Ext_SetCallBack>:
 814:	81 30       	cpi	r24, 0x01	; 1
 816:	49 f0       	breq	.+18     	; 0x82a <Ext_SetCallBack+0x16>
 818:	18 f0       	brcs	.+6      	; 0x820 <Ext_SetCallBack+0xc>
 81a:	82 30       	cpi	r24, 0x02	; 2
 81c:	59 f0       	breq	.+22     	; 0x834 <Ext_SetCallBack+0x20>
 81e:	08 95       	ret
 820:	70 93 8d 00 	sts	0x008D, r23	; 0x80008d <PtrTo_Int0+0x1>
 824:	60 93 8c 00 	sts	0x008C, r22	; 0x80008c <PtrTo_Int0>
 828:	08 95       	ret
 82a:	70 93 8b 00 	sts	0x008B, r23	; 0x80008b <PtrTo_Int1+0x1>
 82e:	60 93 8a 00 	sts	0x008A, r22	; 0x80008a <PtrTo_Int1>
 832:	08 95       	ret
 834:	70 93 89 00 	sts	0x0089, r23	; 0x800089 <PtrTo_Int2+0x1>
 838:	60 93 88 00 	sts	0x0088, r22	; 0x800088 <PtrTo_Int2>
 83c:	08 95       	ret

0000083e <__vector_1>:
 83e:	1f 92       	push	r1
 840:	0f 92       	push	r0
 842:	0f b6       	in	r0, 0x3f	; 63
 844:	0f 92       	push	r0
 846:	11 24       	eor	r1, r1
 848:	2f 93       	push	r18
 84a:	3f 93       	push	r19
 84c:	4f 93       	push	r20
 84e:	5f 93       	push	r21
 850:	6f 93       	push	r22
 852:	7f 93       	push	r23
 854:	8f 93       	push	r24
 856:	9f 93       	push	r25
 858:	af 93       	push	r26
 85a:	bf 93       	push	r27
 85c:	ef 93       	push	r30
 85e:	ff 93       	push	r31
 860:	e0 91 8c 00 	lds	r30, 0x008C	; 0x80008c <PtrTo_Int0>
 864:	f0 91 8d 00 	lds	r31, 0x008D	; 0x80008d <PtrTo_Int0+0x1>
 868:	30 97       	sbiw	r30, 0x00	; 0
 86a:	09 f0       	breq	.+2      	; 0x86e <__stack+0xf>
 86c:	09 95       	icall
 86e:	ff 91       	pop	r31
 870:	ef 91       	pop	r30
 872:	bf 91       	pop	r27
 874:	af 91       	pop	r26
 876:	9f 91       	pop	r25
 878:	8f 91       	pop	r24
 87a:	7f 91       	pop	r23
 87c:	6f 91       	pop	r22
 87e:	5f 91       	pop	r21
 880:	4f 91       	pop	r20
 882:	3f 91       	pop	r19
 884:	2f 91       	pop	r18
 886:	0f 90       	pop	r0
 888:	0f be       	out	0x3f, r0	; 63
 88a:	0f 90       	pop	r0
 88c:	1f 90       	pop	r1
 88e:	18 95       	reti

00000890 <__vector_2>:
 890:	1f 92       	push	r1
 892:	0f 92       	push	r0
 894:	0f b6       	in	r0, 0x3f	; 63
 896:	0f 92       	push	r0
 898:	11 24       	eor	r1, r1
 89a:	2f 93       	push	r18
 89c:	3f 93       	push	r19
 89e:	4f 93       	push	r20
 8a0:	5f 93       	push	r21
 8a2:	6f 93       	push	r22
 8a4:	7f 93       	push	r23
 8a6:	8f 93       	push	r24
 8a8:	9f 93       	push	r25
 8aa:	af 93       	push	r26
 8ac:	bf 93       	push	r27
 8ae:	ef 93       	push	r30
 8b0:	ff 93       	push	r31
 8b2:	e0 91 8a 00 	lds	r30, 0x008A	; 0x80008a <PtrTo_Int1>
 8b6:	f0 91 8b 00 	lds	r31, 0x008B	; 0x80008b <PtrTo_Int1+0x1>
 8ba:	30 97       	sbiw	r30, 0x00	; 0
 8bc:	09 f0       	breq	.+2      	; 0x8c0 <__vector_2+0x30>
 8be:	09 95       	icall
 8c0:	ff 91       	pop	r31
 8c2:	ef 91       	pop	r30
 8c4:	bf 91       	pop	r27
 8c6:	af 91       	pop	r26
 8c8:	9f 91       	pop	r25
 8ca:	8f 91       	pop	r24
 8cc:	7f 91       	pop	r23
 8ce:	6f 91       	pop	r22
 8d0:	5f 91       	pop	r21
 8d2:	4f 91       	pop	r20
 8d4:	3f 91       	pop	r19
 8d6:	2f 91       	pop	r18
 8d8:	0f 90       	pop	r0
 8da:	0f be       	out	0x3f, r0	; 63
 8dc:	0f 90       	pop	r0
 8de:	1f 90       	pop	r1
 8e0:	18 95       	reti

000008e2 <__vector_3>:
 8e2:	1f 92       	push	r1
 8e4:	0f 92       	push	r0
 8e6:	0f b6       	in	r0, 0x3f	; 63
 8e8:	0f 92       	push	r0
 8ea:	11 24       	eor	r1, r1
 8ec:	2f 93       	push	r18
 8ee:	3f 93       	push	r19
 8f0:	4f 93       	push	r20
 8f2:	5f 93       	push	r21
 8f4:	6f 93       	push	r22
 8f6:	7f 93       	push	r23
 8f8:	8f 93       	push	r24
 8fa:	9f 93       	push	r25
 8fc:	af 93       	push	r26
 8fe:	bf 93       	push	r27
 900:	ef 93       	push	r30
 902:	ff 93       	push	r31
 904:	e0 91 88 00 	lds	r30, 0x0088	; 0x800088 <PtrTo_Int2>
 908:	f0 91 89 00 	lds	r31, 0x0089	; 0x800089 <PtrTo_Int2+0x1>
 90c:	30 97       	sbiw	r30, 0x00	; 0
 90e:	09 f0       	breq	.+2      	; 0x912 <__vector_3+0x30>
 910:	09 95       	icall
 912:	ff 91       	pop	r31
 914:	ef 91       	pop	r30
 916:	bf 91       	pop	r27
 918:	af 91       	pop	r26
 91a:	9f 91       	pop	r25
 91c:	8f 91       	pop	r24
 91e:	7f 91       	pop	r23
 920:	6f 91       	pop	r22
 922:	5f 91       	pop	r21
 924:	4f 91       	pop	r20
 926:	3f 91       	pop	r19
 928:	2f 91       	pop	r18
 92a:	0f 90       	pop	r0
 92c:	0f be       	out	0x3f, r0	; 63
 92e:	0f 90       	pop	r0
 930:	1f 90       	pop	r1
 932:	18 95       	reti

00000934 <__vector_11>:
 934:	1f 92       	push	r1
 936:	0f 92       	push	r0
 938:	0f b6       	in	r0, 0x3f	; 63
 93a:	0f 92       	push	r0
 93c:	11 24       	eor	r1, r1
 93e:	2f 93       	push	r18
 940:	3f 93       	push	r19
 942:	4f 93       	push	r20
 944:	5f 93       	push	r21
 946:	6f 93       	push	r22
 948:	7f 93       	push	r23
 94a:	8f 93       	push	r24
 94c:	9f 93       	push	r25
 94e:	af 93       	push	r26
 950:	bf 93       	push	r27
 952:	ef 93       	push	r30
 954:	ff 93       	push	r31
 956:	e0 91 98 00 	lds	r30, 0x0098	; 0x800098 <Ptr_TIMER0_OV>
 95a:	f0 91 99 00 	lds	r31, 0x0099	; 0x800099 <Ptr_TIMER0_OV+0x1>
 95e:	30 97       	sbiw	r30, 0x00	; 0
 960:	09 f0       	breq	.+2      	; 0x964 <__vector_11+0x30>
 962:	09 95       	icall
 964:	ff 91       	pop	r31
 966:	ef 91       	pop	r30
 968:	bf 91       	pop	r27
 96a:	af 91       	pop	r26
 96c:	9f 91       	pop	r25
 96e:	8f 91       	pop	r24
 970:	7f 91       	pop	r23
 972:	6f 91       	pop	r22
 974:	5f 91       	pop	r21
 976:	4f 91       	pop	r20
 978:	3f 91       	pop	r19
 97a:	2f 91       	pop	r18
 97c:	0f 90       	pop	r0
 97e:	0f be       	out	0x3f, r0	; 63
 980:	0f 90       	pop	r0
 982:	1f 90       	pop	r1
 984:	18 95       	reti

00000986 <__vector_10>:
 986:	1f 92       	push	r1
 988:	0f 92       	push	r0
 98a:	0f b6       	in	r0, 0x3f	; 63
 98c:	0f 92       	push	r0
 98e:	11 24       	eor	r1, r1
 990:	2f 93       	push	r18
 992:	3f 93       	push	r19
 994:	4f 93       	push	r20
 996:	5f 93       	push	r21
 998:	6f 93       	push	r22
 99a:	7f 93       	push	r23
 99c:	8f 93       	push	r24
 99e:	9f 93       	push	r25
 9a0:	af 93       	push	r26
 9a2:	bf 93       	push	r27
 9a4:	ef 93       	push	r30
 9a6:	ff 93       	push	r31
 9a8:	e0 91 96 00 	lds	r30, 0x0096	; 0x800096 <Ptr_TIMER0_OC>
 9ac:	f0 91 97 00 	lds	r31, 0x0097	; 0x800097 <Ptr_TIMER0_OC+0x1>
 9b0:	30 97       	sbiw	r30, 0x00	; 0
 9b2:	09 f0       	breq	.+2      	; 0x9b6 <__vector_10+0x30>
 9b4:	09 95       	icall
 9b6:	ff 91       	pop	r31
 9b8:	ef 91       	pop	r30
 9ba:	bf 91       	pop	r27
 9bc:	af 91       	pop	r26
 9be:	9f 91       	pop	r25
 9c0:	8f 91       	pop	r24
 9c2:	7f 91       	pop	r23
 9c4:	6f 91       	pop	r22
 9c6:	5f 91       	pop	r21
 9c8:	4f 91       	pop	r20
 9ca:	3f 91       	pop	r19
 9cc:	2f 91       	pop	r18
 9ce:	0f 90       	pop	r0
 9d0:	0f be       	out	0x3f, r0	; 63
 9d2:	0f 90       	pop	r0
 9d4:	1f 90       	pop	r1
 9d6:	18 95       	reti

000009d8 <TIMER1_INIT>:
 9d8:	8c 30       	cpi	r24, 0x0C	; 12
 9da:	c1 f0       	breq	.+48     	; 0xa0c <TIMER1_INIT+0x34>
 9dc:	28 f4       	brcc	.+10     	; 0x9e8 <TIMER1_INIT+0x10>
 9de:	88 23       	and	r24, r24
 9e0:	41 f0       	breq	.+16     	; 0x9f2 <TIMER1_INIT+0x1a>
 9e2:	84 30       	cpi	r24, 0x04	; 4
 9e4:	01 f1       	breq	.+64     	; 0xa26 <TIMER1_INIT+0x4e>
 9e6:	45 c0       	rjmp	.+138    	; 0xa72 <TIMER1_INIT+0x9a>
 9e8:	8e 30       	cpi	r24, 0x0E	; 14
 9ea:	51 f1       	breq	.+84     	; 0xa40 <TIMER1_INIT+0x68>
 9ec:	8f 30       	cpi	r24, 0x0F	; 15
 9ee:	a9 f1       	breq	.+106    	; 0xa5a <TIMER1_INIT+0x82>
 9f0:	40 c0       	rjmp	.+128    	; 0xa72 <TIMER1_INIT+0x9a>
 9f2:	8f b5       	in	r24, 0x2f	; 47
 9f4:	8e 7f       	andi	r24, 0xFE	; 254
 9f6:	8f bd       	out	0x2f, r24	; 47
 9f8:	8f b5       	in	r24, 0x2f	; 47
 9fa:	8d 7f       	andi	r24, 0xFD	; 253
 9fc:	8f bd       	out	0x2f, r24	; 47
 9fe:	8e b5       	in	r24, 0x2e	; 46
 a00:	87 7f       	andi	r24, 0xF7	; 247
 a02:	8e bd       	out	0x2e, r24	; 46
 a04:	8e b5       	in	r24, 0x2e	; 46
 a06:	8f 7e       	andi	r24, 0xEF	; 239
 a08:	8e bd       	out	0x2e, r24	; 46
 a0a:	33 c0       	rjmp	.+102    	; 0xa72 <TIMER1_INIT+0x9a>
 a0c:	8f b5       	in	r24, 0x2f	; 47
 a0e:	8e 7f       	andi	r24, 0xFE	; 254
 a10:	8f bd       	out	0x2f, r24	; 47
 a12:	8f b5       	in	r24, 0x2f	; 47
 a14:	8d 7f       	andi	r24, 0xFD	; 253
 a16:	8f bd       	out	0x2f, r24	; 47
 a18:	8e b5       	in	r24, 0x2e	; 46
 a1a:	88 60       	ori	r24, 0x08	; 8
 a1c:	8e bd       	out	0x2e, r24	; 46
 a1e:	8e b5       	in	r24, 0x2e	; 46
 a20:	80 61       	ori	r24, 0x10	; 16
 a22:	8e bd       	out	0x2e, r24	; 46
 a24:	26 c0       	rjmp	.+76     	; 0xa72 <TIMER1_INIT+0x9a>
 a26:	8f b5       	in	r24, 0x2f	; 47
 a28:	8e 7f       	andi	r24, 0xFE	; 254
 a2a:	8f bd       	out	0x2f, r24	; 47
 a2c:	8f b5       	in	r24, 0x2f	; 47
 a2e:	8d 7f       	andi	r24, 0xFD	; 253
 a30:	8f bd       	out	0x2f, r24	; 47
 a32:	8e b5       	in	r24, 0x2e	; 46
 a34:	88 60       	ori	r24, 0x08	; 8
 a36:	8e bd       	out	0x2e, r24	; 46
 a38:	8e b5       	in	r24, 0x2e	; 46
 a3a:	8f 7e       	andi	r24, 0xEF	; 239
 a3c:	8e bd       	out	0x2e, r24	; 46
 a3e:	19 c0       	rjmp	.+50     	; 0xa72 <TIMER1_INIT+0x9a>
 a40:	8f b5       	in	r24, 0x2f	; 47
 a42:	8e 7f       	andi	r24, 0xFE	; 254
 a44:	8f bd       	out	0x2f, r24	; 47
 a46:	8f b5       	in	r24, 0x2f	; 47
 a48:	82 60       	ori	r24, 0x02	; 2
 a4a:	8f bd       	out	0x2f, r24	; 47
 a4c:	8e b5       	in	r24, 0x2e	; 46
 a4e:	88 60       	ori	r24, 0x08	; 8
 a50:	8e bd       	out	0x2e, r24	; 46
 a52:	8e b5       	in	r24, 0x2e	; 46
 a54:	80 61       	ori	r24, 0x10	; 16
 a56:	8e bd       	out	0x2e, r24	; 46
 a58:	0c c0       	rjmp	.+24     	; 0xa72 <TIMER1_INIT+0x9a>
 a5a:	8f b5       	in	r24, 0x2f	; 47
 a5c:	81 60       	ori	r24, 0x01	; 1
 a5e:	8f bd       	out	0x2f, r24	; 47
 a60:	8f b5       	in	r24, 0x2f	; 47
 a62:	82 60       	ori	r24, 0x02	; 2
 a64:	8f bd       	out	0x2f, r24	; 47
 a66:	8e b5       	in	r24, 0x2e	; 46
 a68:	88 60       	ori	r24, 0x08	; 8
 a6a:	8e bd       	out	0x2e, r24	; 46
 a6c:	8e b5       	in	r24, 0x2e	; 46
 a6e:	80 61       	ori	r24, 0x10	; 16
 a70:	8e bd       	out	0x2e, r24	; 46
 a72:	8e b5       	in	r24, 0x2e	; 46
 a74:	88 7f       	andi	r24, 0xF8	; 248
 a76:	8e bd       	out	0x2e, r24	; 46
 a78:	8e b5       	in	r24, 0x2e	; 46
 a7a:	68 2b       	or	r22, r24
 a7c:	6e bd       	out	0x2e, r22	; 46
 a7e:	08 95       	ret

00000a80 <TIMER1_OVF_InterruptEnable>:
 a80:	89 b7       	in	r24, 0x39	; 57
 a82:	84 60       	ori	r24, 0x04	; 4
 a84:	89 bf       	out	0x39, r24	; 57
 a86:	08 95       	ret

00000a88 <TIMER1_OVF_SetCallBack>:
 a88:	90 93 95 00 	sts	0x0095, r25	; 0x800095 <PtrTo_TIMER1_OVF+0x1>
 a8c:	80 93 94 00 	sts	0x0094, r24	; 0x800094 <PtrTo_TIMER1_OVF>
 a90:	08 95       	ret

00000a92 <__vector_9>:
 a92:	1f 92       	push	r1
 a94:	0f 92       	push	r0
 a96:	0f b6       	in	r0, 0x3f	; 63
 a98:	0f 92       	push	r0
 a9a:	11 24       	eor	r1, r1
 a9c:	2f 93       	push	r18
 a9e:	3f 93       	push	r19
 aa0:	4f 93       	push	r20
 aa2:	5f 93       	push	r21
 aa4:	6f 93       	push	r22
 aa6:	7f 93       	push	r23
 aa8:	8f 93       	push	r24
 aaa:	9f 93       	push	r25
 aac:	af 93       	push	r26
 aae:	bf 93       	push	r27
 ab0:	ef 93       	push	r30
 ab2:	ff 93       	push	r31
 ab4:	e0 91 94 00 	lds	r30, 0x0094	; 0x800094 <PtrTo_TIMER1_OVF>
 ab8:	f0 91 95 00 	lds	r31, 0x0095	; 0x800095 <PtrTo_TIMER1_OVF+0x1>
 abc:	30 97       	sbiw	r30, 0x00	; 0
 abe:	09 f0       	breq	.+2      	; 0xac2 <__vector_9+0x30>
 ac0:	09 95       	icall
 ac2:	ff 91       	pop	r31
 ac4:	ef 91       	pop	r30
 ac6:	bf 91       	pop	r27
 ac8:	af 91       	pop	r26
 aca:	9f 91       	pop	r25
 acc:	8f 91       	pop	r24
 ace:	7f 91       	pop	r23
 ad0:	6f 91       	pop	r22
 ad2:	5f 91       	pop	r21
 ad4:	4f 91       	pop	r20
 ad6:	3f 91       	pop	r19
 ad8:	2f 91       	pop	r18
 ada:	0f 90       	pop	r0
 adc:	0f be       	out	0x3f, r0	; 63
 ade:	0f 90       	pop	r0
 ae0:	1f 90       	pop	r1
 ae2:	18 95       	reti

00000ae4 <__vector_7>:
 ae4:	1f 92       	push	r1
 ae6:	0f 92       	push	r0
 ae8:	0f b6       	in	r0, 0x3f	; 63
 aea:	0f 92       	push	r0
 aec:	11 24       	eor	r1, r1
 aee:	2f 93       	push	r18
 af0:	3f 93       	push	r19
 af2:	4f 93       	push	r20
 af4:	5f 93       	push	r21
 af6:	6f 93       	push	r22
 af8:	7f 93       	push	r23
 afa:	8f 93       	push	r24
 afc:	9f 93       	push	r25
 afe:	af 93       	push	r26
 b00:	bf 93       	push	r27
 b02:	ef 93       	push	r30
 b04:	ff 93       	push	r31
 b06:	e0 91 92 00 	lds	r30, 0x0092	; 0x800092 <PtrTo_TIMER1_OC1A>
 b0a:	f0 91 93 00 	lds	r31, 0x0093	; 0x800093 <PtrTo_TIMER1_OC1A+0x1>
 b0e:	30 97       	sbiw	r30, 0x00	; 0
 b10:	09 f0       	breq	.+2      	; 0xb14 <__vector_7+0x30>
 b12:	09 95       	icall
 b14:	ff 91       	pop	r31
 b16:	ef 91       	pop	r30
 b18:	bf 91       	pop	r27
 b1a:	af 91       	pop	r26
 b1c:	9f 91       	pop	r25
 b1e:	8f 91       	pop	r24
 b20:	7f 91       	pop	r23
 b22:	6f 91       	pop	r22
 b24:	5f 91       	pop	r21
 b26:	4f 91       	pop	r20
 b28:	3f 91       	pop	r19
 b2a:	2f 91       	pop	r18
 b2c:	0f 90       	pop	r0
 b2e:	0f be       	out	0x3f, r0	; 63
 b30:	0f 90       	pop	r0
 b32:	1f 90       	pop	r1
 b34:	18 95       	reti

00000b36 <__vector_8>:
 b36:	1f 92       	push	r1
 b38:	0f 92       	push	r0
 b3a:	0f b6       	in	r0, 0x3f	; 63
 b3c:	0f 92       	push	r0
 b3e:	11 24       	eor	r1, r1
 b40:	2f 93       	push	r18
 b42:	3f 93       	push	r19
 b44:	4f 93       	push	r20
 b46:	5f 93       	push	r21
 b48:	6f 93       	push	r22
 b4a:	7f 93       	push	r23
 b4c:	8f 93       	push	r24
 b4e:	9f 93       	push	r25
 b50:	af 93       	push	r26
 b52:	bf 93       	push	r27
 b54:	ef 93       	push	r30
 b56:	ff 93       	push	r31
 b58:	e0 91 90 00 	lds	r30, 0x0090	; 0x800090 <PtrTo_TIMER1_OC1B>
 b5c:	f0 91 91 00 	lds	r31, 0x0091	; 0x800091 <PtrTo_TIMER1_OC1B+0x1>
 b60:	30 97       	sbiw	r30, 0x00	; 0
 b62:	09 f0       	breq	.+2      	; 0xb66 <__vector_8+0x30>
 b64:	09 95       	icall
 b66:	ff 91       	pop	r31
 b68:	ef 91       	pop	r30
 b6a:	bf 91       	pop	r27
 b6c:	af 91       	pop	r26
 b6e:	9f 91       	pop	r25
 b70:	8f 91       	pop	r24
 b72:	7f 91       	pop	r23
 b74:	6f 91       	pop	r22
 b76:	5f 91       	pop	r21
 b78:	4f 91       	pop	r20
 b7a:	3f 91       	pop	r19
 b7c:	2f 91       	pop	r18
 b7e:	0f 90       	pop	r0
 b80:	0f be       	out	0x3f, r0	; 63
 b82:	0f 90       	pop	r0
 b84:	1f 90       	pop	r1
 b86:	18 95       	reti

00000b88 <__vector_6>:
 b88:	1f 92       	push	r1
 b8a:	0f 92       	push	r0
 b8c:	0f b6       	in	r0, 0x3f	; 63
 b8e:	0f 92       	push	r0
 b90:	11 24       	eor	r1, r1
 b92:	2f 93       	push	r18
 b94:	3f 93       	push	r19
 b96:	4f 93       	push	r20
 b98:	5f 93       	push	r21
 b9a:	6f 93       	push	r22
 b9c:	7f 93       	push	r23
 b9e:	8f 93       	push	r24
 ba0:	9f 93       	push	r25
 ba2:	af 93       	push	r26
 ba4:	bf 93       	push	r27
 ba6:	ef 93       	push	r30
 ba8:	ff 93       	push	r31
 baa:	e0 91 8e 00 	lds	r30, 0x008E	; 0x80008e <PtrT0_TIMER1_ICU>
 bae:	f0 91 8f 00 	lds	r31, 0x008F	; 0x80008f <PtrT0_TIMER1_ICU+0x1>
 bb2:	30 97       	sbiw	r30, 0x00	; 0
 bb4:	09 f0       	breq	.+2      	; 0xbb8 <__vector_6+0x30>
 bb6:	09 95       	icall
 bb8:	ff 91       	pop	r31
 bba:	ef 91       	pop	r30
 bbc:	bf 91       	pop	r27
 bbe:	af 91       	pop	r26
 bc0:	9f 91       	pop	r25
 bc2:	8f 91       	pop	r24
 bc4:	7f 91       	pop	r23
 bc6:	6f 91       	pop	r22
 bc8:	5f 91       	pop	r21
 bca:	4f 91       	pop	r20
 bcc:	3f 91       	pop	r19
 bce:	2f 91       	pop	r18
 bd0:	0f 90       	pop	r0
 bd2:	0f be       	out	0x3f, r0	; 63
 bd4:	0f 90       	pop	r0
 bd6:	1f 90       	pop	r1
 bd8:	18 95       	reti

00000bda <__udivmodhi4>:
 bda:	aa 1b       	sub	r26, r26
 bdc:	bb 1b       	sub	r27, r27
 bde:	51 e1       	ldi	r21, 0x11	; 17
 be0:	07 c0       	rjmp	.+14     	; 0xbf0 <__udivmodhi4_ep>

00000be2 <__udivmodhi4_loop>:
 be2:	aa 1f       	adc	r26, r26
 be4:	bb 1f       	adc	r27, r27
 be6:	a6 17       	cp	r26, r22
 be8:	b7 07       	cpc	r27, r23
 bea:	10 f0       	brcs	.+4      	; 0xbf0 <__udivmodhi4_ep>
 bec:	a6 1b       	sub	r26, r22
 bee:	b7 0b       	sbc	r27, r23

00000bf0 <__udivmodhi4_ep>:
 bf0:	88 1f       	adc	r24, r24
 bf2:	99 1f       	adc	r25, r25
 bf4:	5a 95       	dec	r21
 bf6:	a9 f7       	brne	.-22     	; 0xbe2 <__udivmodhi4_loop>
 bf8:	80 95       	com	r24
 bfa:	90 95       	com	r25
 bfc:	bc 01       	movw	r22, r24
 bfe:	cd 01       	movw	r24, r26
 c00:	08 95       	ret

00000c02 <__divmodhi4>:
 c02:	97 fb       	bst	r25, 7
 c04:	07 2e       	mov	r0, r23
 c06:	16 f4       	brtc	.+4      	; 0xc0c <__divmodhi4+0xa>
 c08:	00 94       	com	r0
 c0a:	07 d0       	rcall	.+14     	; 0xc1a <__divmodhi4_neg1>
 c0c:	77 fd       	sbrc	r23, 7
 c0e:	09 d0       	rcall	.+18     	; 0xc22 <__divmodhi4_neg2>
 c10:	0e 94 ed 05 	call	0xbda	; 0xbda <__udivmodhi4>
 c14:	07 fc       	sbrc	r0, 7
 c16:	05 d0       	rcall	.+10     	; 0xc22 <__divmodhi4_neg2>
 c18:	3e f4       	brtc	.+14     	; 0xc28 <__divmodhi4_exit>

00000c1a <__divmodhi4_neg1>:
 c1a:	90 95       	com	r25
 c1c:	81 95       	neg	r24
 c1e:	9f 4f       	sbci	r25, 0xFF	; 255
 c20:	08 95       	ret

00000c22 <__divmodhi4_neg2>:
 c22:	70 95       	com	r23
 c24:	61 95       	neg	r22
 c26:	7f 4f       	sbci	r23, 0xFF	; 255

00000c28 <__divmodhi4_exit>:
 c28:	08 95       	ret

00000c2a <_exit>:
 c2a:	f8 94       	cli

00000c2c <__stop_program>:
 c2c:	ff cf       	rjmp	.-2      	; 0xc2c <__stop_program>
